target datalayout = "e-m:e-p270:32:32-p271:32:32-p272:64:64-i64:64-i128:128-f80:128-n8:16:32:64-S128"
target triple = "x86_64-pc-linux-gnu"

%struct.expert_field = type { i32, i32 }
%struct._packet_info = type { ptr, ptr, i32, i32, %struct.nstime_t, %struct.nstime_t, %struct.nstime_t, i8, ptr, ptr, ptr, ptr, %struct._address, %struct._address, %struct._address, %struct._address, %struct._address, %struct._address, i32, ptr, i8, [3 x i8], %struct.anon, i32, i32, i32, i32, ptr, i8, ptr, ptr, i16, i16, i32, i32, i16, i32, i32, ptr, ptr, ptr, i8, i8, i16, i16, i16, i32, i16, i16, ptr, ptr, ptr, ptr, ptr, i32, i32 }
%struct.nstime_t = type { i64, i32 }
%struct._address = type { i32, i32, ptr, ptr }
%struct.anon = type { i8, [3 x i8] }

@hf_uftp_version = internal global i32 0, align 4
@hf_uftp_func = internal global i32 0, align 4
@hf_uftp_blsize = internal global i32 0, align 4
@hf_uftp_group_id = internal global i32 0, align 4
@hf_uftp_srcaddr = internal global i32 0, align 4
@hf_uftp_destaddr = internal global i32 0, align 4
@ett_uftp = internal global i32 0, align 4
@ei_uftp_func_unknown = internal global %struct.expert_field zeroinitializer, align 4
@.str.253 = private unnamed_addr constant [5 x i8] c"UFTP\00", align 1
@proto_uftp = internal global i32 0, align 4
@uftp4_handle = internal global ptr null, align 8
@uftp5_handle = internal global ptr null, align 8
@.str.285 = private unnamed_addr constant [6 x i8] c"%-10s\00", align 1
@.str.286 = private unnamed_addr constant [13 x i8] c"Unknown (%d)\00", align 1
@.str.287 = private unnamed_addr constant [9 x i8] c" ID=%08X\00", align 1
@.str.288 = private unnamed_addr constant [21 x i8] c"Function unknown: %d\00", align 1

; Function Attrs: null_pointer_is_valid sspstrong uwtable
define internal i32 @dissect_uftp(ptr noundef %0, ptr noundef %1, ptr noundef %2, ptr noundef %3) #0 {
  %5 = alloca i32, align 4
  %6 = alloca ptr, align 8
  %7 = alloca ptr, align 8
  %8 = alloca ptr, align 8
  %9 = alloca ptr, align 8
  %10 = alloca i8, align 1
  %11 = alloca i8, align 1
  %12 = alloca i32, align 4
  %13 = alloca i16, align 2
  %14 = alloca ptr, align 8
  %15 = alloca ptr, align 8
  %16 = alloca ptr, align 8
  %17 = alloca i32, align 4
  %18 = alloca i32, align 4
  store ptr %0, ptr %6, align 8
  store ptr %1, ptr %7, align 8
  store ptr %2, ptr %8, align 8
  store ptr %3, ptr %9, align 8
  call void @llvm.lifetime.start.p0(i64 1, ptr %10) #3
  call void @llvm.lifetime.start.p0(i64 1, ptr %11) #3
  call void @llvm.lifetime.start.p0(i64 4, ptr %12) #3
  call void @llvm.lifetime.start.p0(i64 2, ptr %13) #3
  call void @llvm.lifetime.start.p0(i64 8, ptr %14) #3
  call void @llvm.lifetime.start.p0(i64 8, ptr %15) #3
  store ptr null, ptr %15, align 8
  call void @llvm.lifetime.start.p0(i64 8, ptr %16) #3
  store ptr null, ptr %16, align 8
  call void @llvm.lifetime.start.p0(i64 4, ptr %17) #3
  store i32 0, ptr %17, align 4
  %19 = load ptr, ptr %6, align 8
  %20 = call zeroext i8 @tvb_get_uint8(ptr noundef %19, i32 noundef 0)
  store i8 %20, ptr %10, align 1
  %21 = load i8, ptr %10, align 1
  %22 = zext i8 %21 to i32
  %23 = icmp eq i32 %22, 80
  br i1 %23, label %24, label %30

24:                                               ; preds = %4
  %25 = load ptr, ptr @uftp5_handle, align 8
  %26 = load ptr, ptr %6, align 8
  %27 = load ptr, ptr %7, align 8
  %28 = load ptr, ptr %8, align 8
  %29 = call i32 @call_dissector(ptr noundef %25, ptr noundef %26, ptr noundef %27, ptr noundef %28)
  store i32 %29, ptr %5, align 4
  store i32 1, ptr %18, align 4
  br label %248

30:                                               ; preds = %4
  %31 = load i8, ptr %10, align 1
  %32 = zext i8 %31 to i32
  %33 = icmp eq i32 %32, 64
  br i1 %33, label %34, label %40

34:                                               ; preds = %30
  %35 = load ptr, ptr @uftp4_handle, align 8
  %36 = load ptr, ptr %6, align 8
  %37 = load ptr, ptr %7, align 8
  %38 = load ptr, ptr %8, align 8
  %39 = call i32 @call_dissector(ptr noundef %35, ptr noundef %36, ptr noundef %37, ptr noundef %38)
  store i32 %39, ptr %5, align 4
  store i32 1, ptr %18, align 4
  br label %248

40:                                               ; preds = %30
  %41 = load i8, ptr %10, align 1
  %42 = zext i8 %41 to i32
  %43 = icmp ne i32 %42, 49
  br i1 %43, label %44, label %49

44:                                               ; preds = %40
  %45 = load i8, ptr %10, align 1
  %46 = zext i8 %45 to i32
  %47 = icmp ne i32 %46, 48
  br i1 %47, label %48, label %49

48:                                               ; preds = %44
  store i32 0, ptr %5, align 4
  store i32 1, ptr %18, align 4
  br label %248

49:                                               ; preds = %44, %40
  br label %50

50:                                               ; preds = %49
  br label %51

51:                                               ; preds = %50
  %52 = load ptr, ptr %6, align 8
  %53 = call i32 @tvb_reported_length(ptr noundef %52)
  %54 = icmp ult i32 %53, 16
  br i1 %54, label %55, label %56

55:                                               ; preds = %51
  store i32 0, ptr %5, align 4
  store i32 1, ptr %18, align 4
  br label %248

56:                                               ; preds = %51
  %57 = load ptr, ptr %6, align 8
  %58 = call zeroext i8 @tvb_get_uint8(ptr noundef %57, i32 noundef 1)
  store i8 %58, ptr %11, align 1
  %59 = load ptr, ptr %6, align 8
  %60 = call zeroext i16 @tvb_get_ntohs(ptr noundef %59, i32 noundef 2)
  store i16 %60, ptr %13, align 2
  %61 = load ptr, ptr %6, align 8
  %62 = call i32 @tvb_get_ntohl(ptr noundef %61, i32 noundef 4)
  store i32 %62, ptr %12, align 4
  %63 = load ptr, ptr %6, align 8
  %64 = call i32 @tvb_reported_length(ptr noundef %63)
  %65 = load i16, ptr %13, align 2
  %66 = zext i16 %65 to i32
  %67 = add i32 16, %66
  %68 = icmp ne i32 %64, %67
  br i1 %68, label %69, label %70

69:                                               ; preds = %56
  store i32 0, ptr %5, align 4
  store i32 1, ptr %18, align 4
  br label %248

70:                                               ; preds = %56
  %71 = load ptr, ptr %7, align 8
  %72 = getelementptr inbounds nuw %struct._packet_info, ptr %71, i32 0, i32 1
  %73 = load ptr, ptr %72, align 8
  call void @col_set_str(ptr noundef %73, i32 noundef 35, ptr noundef @.str.253)
  %74 = load ptr, ptr %7, align 8
  %75 = getelementptr inbounds nuw %struct._packet_info, ptr %74, i32 0, i32 1
  %76 = load ptr, ptr %75, align 8
  call void @col_clear(ptr noundef %76, i32 noundef 25)
  %77 = load ptr, ptr %7, align 8
  %78 = getelementptr inbounds nuw %struct._packet_info, ptr %77, i32 0, i32 1
  %79 = load ptr, ptr %78, align 8
  %80 = load i8, ptr %11, align 1
  %81 = zext i8 %80 to i32
  %82 = call ptr @val_to_str(i32 noundef %81, ptr noundef @messages, ptr noundef @.str.286)
  call void (ptr, i32, ptr, ...) @col_add_fstr(ptr noundef %79, i32 noundef 25, ptr noundef @.str.285, ptr noundef %82)
  %83 = load i8, ptr %11, align 1
  %84 = zext i8 %83 to i32
  %85 = icmp ne i32 %84, 14
  br i1 %85, label %86, label %95

86:                                               ; preds = %70
  %87 = load i8, ptr %11, align 1
  %88 = zext i8 %87 to i32
  %89 = icmp ne i32 %88, 15
  br i1 %89, label %90, label %95

90:                                               ; preds = %86
  %91 = load ptr, ptr %7, align 8
  %92 = getelementptr inbounds nuw %struct._packet_info, ptr %91, i32 0, i32 1
  %93 = load ptr, ptr %92, align 8
  %94 = load i32, ptr %12, align 4
  call void (ptr, i32, ptr, ...) @col_append_fstr(ptr noundef %93, i32 noundef 25, ptr noundef @.str.287, i32 noundef %94)
  br label %95

95:                                               ; preds = %90, %86, %70
  %96 = load ptr, ptr %8, align 8
  %97 = load i32, ptr @proto_uftp, align 4
  %98 = load ptr, ptr %6, align 8
  %99 = call ptr @proto_tree_add_item(ptr noundef %96, i32 noundef %97, ptr noundef %98, i32 noundef 0, i32 noundef -1, i32 noundef 0)
  store ptr %99, ptr %15, align 8
  %100 = load ptr, ptr %15, align 8
  %101 = load i32, ptr @ett_uftp, align 4
  %102 = call ptr @proto_item_add_subtree(ptr noundef %100, i32 noundef %101)
  store ptr %102, ptr %16, align 8
  %103 = load ptr, ptr %16, align 8
  %104 = load i32, ptr @hf_uftp_version, align 4
  %105 = load ptr, ptr %6, align 8
  %106 = load i32, ptr %17, align 4
  %107 = call ptr @proto_tree_add_item(ptr noundef %103, i32 noundef %104, ptr noundef %105, i32 noundef %106, i32 noundef 1, i32 noundef 0)
  %108 = load i32, ptr %17, align 4
  %109 = add i32 %108, 1
  store i32 %109, ptr %17, align 4
  %110 = load ptr, ptr %16, align 8
  %111 = load i32, ptr @hf_uftp_func, align 4
  %112 = load ptr, ptr %6, align 8
  %113 = load i32, ptr %17, align 4
  %114 = call ptr @proto_tree_add_item(ptr noundef %110, i32 noundef %111, ptr noundef %112, i32 noundef %113, i32 noundef 1, i32 noundef 0)
  %115 = load i32, ptr %17, align 4
  %116 = add i32 %115, 1
  store i32 %116, ptr %17, align 4
  %117 = load ptr, ptr %16, align 8
  %118 = load i32, ptr @hf_uftp_blsize, align 4
  %119 = load ptr, ptr %6, align 8
  %120 = load i32, ptr %17, align 4
  %121 = call ptr @proto_tree_add_item(ptr noundef %117, i32 noundef %118, ptr noundef %119, i32 noundef %120, i32 noundef 2, i32 noundef 0)
  %122 = load i32, ptr %17, align 4
  %123 = add i32 %122, 2
  store i32 %123, ptr %17, align 4
  %124 = load ptr, ptr %16, align 8
  %125 = load i32, ptr @hf_uftp_group_id, align 4
  %126 = load ptr, ptr %6, align 8
  %127 = load i32, ptr %17, align 4
  %128 = call ptr @proto_tree_add_item(ptr noundef %124, i32 noundef %125, ptr noundef %126, i32 noundef %127, i32 noundef 4, i32 noundef 0)
  %129 = load i32, ptr %17, align 4
  %130 = add i32 %129, 4
  store i32 %130, ptr %17, align 4
  %131 = load ptr, ptr %16, align 8
  %132 = load i32, ptr @hf_uftp_srcaddr, align 4
  %133 = load ptr, ptr %6, align 8
  %134 = load i32, ptr %17, align 4
  %135 = call ptr @proto_tree_add_item(ptr noundef %131, i32 noundef %132, ptr noundef %133, i32 noundef %134, i32 noundef 4, i32 noundef 0)
  %136 = load i32, ptr %17, align 4
  %137 = add i32 %136, 4
  store i32 %137, ptr %17, align 4
  %138 = load ptr, ptr %16, align 8
  %139 = load i32, ptr @hf_uftp_destaddr, align 4
  %140 = load ptr, ptr %6, align 8
  %141 = load i32, ptr %17, align 4
  %142 = call ptr @proto_tree_add_item(ptr noundef %138, i32 noundef %139, ptr noundef %140, i32 noundef %141, i32 noundef 4, i32 noundef 0)
  %143 = load i32, ptr %17, align 4
  %144 = add i32 %143, 4
  store i32 %144, ptr %17, align 4
  %145 = load ptr, ptr %6, align 8
  %146 = load i32, ptr %17, align 4
  %147 = load i16, ptr %13, align 2
  %148 = zext i16 %147 to i32
  %149 = call ptr @tvb_new_subset_length(ptr noundef %145, i32 noundef %146, i32 noundef %148)
  store ptr %149, ptr %14, align 8
  %150 = load i8, ptr %11, align 1
  %151 = zext i8 %150 to i32
  switch i32 %151, label %237 [
    i32 1, label %152
    i32 2, label %156
    i32 3, label %160
    i32 4, label %164
    i32 5, label %168
    i32 6, label %181
    i32 7, label %185
    i32 8, label %189
    i32 9, label %193
    i32 10, label %197
    i32 11, label %201
    i32 12, label %205
    i32 13, label %209
    i32 14, label %213
    i32 15, label %217
    i32 16, label %221
    i32 17, label %225
    i32 80, label %229
    i32 99, label %233
  ]

152:                                              ; preds = %95
  %153 = load ptr, ptr %14, align 8
  %154 = load ptr, ptr %7, align 8
  %155 = load ptr, ptr %16, align 8
  call void @dissect_uftp_announce(ptr noundef %153, ptr noundef %154, ptr noundef %155)
  br label %245

156:                                              ; preds = %95
  %157 = load ptr, ptr %14, align 8
  %158 = load ptr, ptr %7, align 8
  %159 = load ptr, ptr %16, align 8
  call void @dissect_uftp_register(ptr noundef %157, ptr noundef %158, ptr noundef %159)
  br label %245

160:                                              ; preds = %95
  %161 = load ptr, ptr %14, align 8
  %162 = load ptr, ptr %7, align 8
  %163 = load ptr, ptr %16, align 8
  call void @dissect_uftp_clientkey(ptr noundef %161, ptr noundef %162, ptr noundef %163)
  br label %245

164:                                              ; preds = %95
  %165 = load ptr, ptr %14, align 8
  %166 = load ptr, ptr %7, align 8
  %167 = load ptr, ptr %16, align 8
  call void @dissect_uftp_regconf(ptr noundef %165, ptr noundef %166, ptr noundef %167)
  br label %245

168:                                              ; preds = %95
  %169 = load i8, ptr %10, align 1
  %170 = zext i8 %169 to i32
  %171 = icmp eq i32 %170, 48
  br i1 %171, label %172, label %176

172:                                              ; preds = %168
  %173 = load ptr, ptr %14, align 8
  %174 = load ptr, ptr %7, align 8
  %175 = load ptr, ptr %16, align 8
  call void @dissect_uftp_fileinfo_30(ptr noundef %173, ptr noundef %174, ptr noundef %175)
  br label %180

176:                                              ; preds = %168
  %177 = load ptr, ptr %14, align 8
  %178 = load ptr, ptr %7, align 8
  %179 = load ptr, ptr %16, align 8
  call void @dissect_uftp_fileinfo(ptr noundef %177, ptr noundef %178, ptr noundef %179)
  br label %180

180:                                              ; preds = %176, %172
  br label %245

181:                                              ; preds = %95
  %182 = load ptr, ptr %14, align 8
  %183 = load ptr, ptr %7, align 8
  %184 = load ptr, ptr %16, align 8
  call void @dissect_uftp_keyinfo(ptr noundef %182, ptr noundef %183, ptr noundef %184)
  br label %245

185:                                              ; preds = %95
  %186 = load ptr, ptr %14, align 8
  %187 = load ptr, ptr %7, align 8
  %188 = load ptr, ptr %16, align 8
  call void @dissect_uftp_infoack(ptr noundef %186, ptr noundef %187, ptr noundef %188)
  br label %245

189:                                              ; preds = %95
  %190 = load ptr, ptr %14, align 8
  %191 = load ptr, ptr %7, align 8
  %192 = load ptr, ptr %16, align 8
  call void @dissect_uftp_fileseg(ptr noundef %190, ptr noundef %191, ptr noundef %192)
  br label %245

193:                                              ; preds = %95
  %194 = load ptr, ptr %14, align 8
  %195 = load ptr, ptr %7, align 8
  %196 = load ptr, ptr %16, align 8
  call void @dissect_uftp_done(ptr noundef %194, ptr noundef %195, ptr noundef %196)
  br label %245

197:                                              ; preds = %95
  %198 = load ptr, ptr %14, align 8
  %199 = load ptr, ptr %7, align 8
  %200 = load ptr, ptr %16, align 8
  call void @dissect_uftp_status(ptr noundef %198, ptr noundef %199, ptr noundef %200)
  br label %245

201:                                              ; preds = %95
  %202 = load ptr, ptr %14, align 8
  %203 = load ptr, ptr %7, align 8
  %204 = load ptr, ptr %16, align 8
  call void @dissect_uftp_prstatus(ptr noundef %202, ptr noundef %203, ptr noundef %204)
  br label %245

205:                                              ; preds = %95
  %206 = load ptr, ptr %14, align 8
  %207 = load ptr, ptr %7, align 8
  %208 = load ptr, ptr %16, align 8
  call void @dissect_uftp_complete(ptr noundef %206, ptr noundef %207, ptr noundef %208)
  br label %245

209:                                              ; preds = %95
  %210 = load ptr, ptr %14, align 8
  %211 = load ptr, ptr %7, align 8
  %212 = load ptr, ptr %16, align 8
  call void @dissect_uftp_doneconf(ptr noundef %210, ptr noundef %211, ptr noundef %212)
  br label %245

213:                                              ; preds = %95
  %214 = load ptr, ptr %14, align 8
  %215 = load ptr, ptr %7, align 8
  %216 = load ptr, ptr %16, align 8
  call void @dissect_uftp_hbreq(ptr noundef %214, ptr noundef %215, ptr noundef %216)
  br label %245

217:                                              ; preds = %95
  %218 = load ptr, ptr %14, align 8
  %219 = load ptr, ptr %7, align 8
  %220 = load ptr, ptr %16, align 8
  call void @dissect_uftp_hbresp(ptr noundef %218, ptr noundef %219, ptr noundef %220)
  br label %245

221:                                              ; preds = %95
  %222 = load ptr, ptr %14, align 8
  %223 = load ptr, ptr %7, align 8
  %224 = load ptr, ptr %16, align 8
  call void @dissect_uftp_keyreq(ptr noundef %222, ptr noundef %223, ptr noundef %224)
  br label %245

225:                                              ; preds = %95
  %226 = load ptr, ptr %14, align 8
  %227 = load ptr, ptr %7, align 8
  %228 = load ptr, ptr %16, align 8
  call void @dissect_uftp_proxykey(ptr noundef %226, ptr noundef %227, ptr noundef %228)
  br label %245

229:                                              ; preds = %95
  %230 = load ptr, ptr %14, align 8
  %231 = load ptr, ptr %7, align 8
  %232 = load ptr, ptr %16, align 8
  call void @dissect_uftp_encrypted(ptr noundef %230, ptr noundef %231, ptr noundef %232)
  br label %245

233:                                              ; preds = %95
  %234 = load ptr, ptr %14, align 8
  %235 = load ptr, ptr %7, align 8
  %236 = load ptr, ptr %16, align 8
  call void @dissect_uftp_abort(ptr noundef %234, ptr noundef %235, ptr noundef %236)
  br label %245

237:                                              ; preds = %95
  %238 = load ptr, ptr %8, align 8
  %239 = load ptr, ptr %7, align 8
  %240 = load ptr, ptr %6, align 8
  %241 = load i32, ptr %17, align 4
  %242 = load i8, ptr %11, align 1
  %243 = zext i8 %242 to i32
  %244 = call ptr (ptr, ptr, ptr, ptr, i32, i32, ptr, ...) @proto_tree_add_expert_format(ptr noundef %238, ptr noundef %239, ptr noundef @ei_uftp_func_unknown, ptr noundef %240, i32 noundef %241, i32 noundef -1, ptr noundef @.str.288, i32 noundef %243)
  br label %245

245:                                              ; preds = %237, %233, %229, %225, %221, %217, %213, %209, %205, %201, %197, %193, %189, %185, %181, %180, %164, %160, %156, %152
  %246 = load ptr, ptr %6, align 8
  %247 = call i32 @tvb_reported_length(ptr noundef %246)
  store i32 %247, ptr %5, align 4
  store i32 1, ptr %18, align 4
  br label %248

248:                                              ; preds = %245, %69, %55, %48, %34, %24
  call void @llvm.lifetime.end.p0(i64 4, ptr %17) #3
  call void @llvm.lifetime.end.p0(i64 8, ptr %16) #3
  call void @llvm.lifetime.end.p0(i64 8, ptr %15) #3
  call void @llvm.lifetime.end.p0(i64 8, ptr %14) #3
  call void @llvm.lifetime.end.p0(i64 2, ptr %13) #3
  call void @llvm.lifetime.end.p0(i64 4, ptr %12) #3
  call void @llvm.lifetime.end.p0(i64 1, ptr %11) #3
  call void @llvm.lifetime.end.p0(i64 1, ptr %10) #3
  %249 = load i32, ptr %5, align 4
  ret i32 %249
}