; Function Attrs: null_pointer_is_valid sspstrong uwtable
define internal i32 @dissect_uftp(ptr noundef %0, ptr noundef %1, ptr noundef %2, ptr readnone captures(none) %3) #0 {
  %5 = tail call zeroext i8 @tvb_get_uint8(ptr noundef %0, i32 noundef 0)
  switch i8 %5, label %12 [
    i8 80, label %6
    i8 64, label %9
  ]

6:                                                ; preds = %4
  %7 = load ptr, ptr @uftp5_handle, align 8
  %8 = tail call i32 @call_dissector(ptr noundef %7, ptr noundef %0, ptr noundef %1, ptr noundef %2)
  br label %78

9:                                                ; preds = %4
  %10 = load ptr, ptr @uftp4_handle, align 8
  %11 = tail call i32 @call_dissector(ptr noundef %10, ptr noundef %0, ptr noundef %1, ptr noundef %2)
  br label %78

12:                                               ; preds = %4
  %13 = add i8 %5, -50
  %or.cond = icmp ult i8 %13, -2
  br i1 %or.cond, label %78, label %14

14:                                               ; preds = %12
  %15 = tail call i32 @tvb_reported_length(ptr noundef %0)
  %16 = icmp ult i32 %15, 16
  br i1 %16, label %78, label %17

17:                                               ; preds = %14
  %18 = tail call zeroext i8 @tvb_get_uint8(ptr noundef %0, i32 noundef 1)
  %19 = tail call zeroext i16 @tvb_get_ntohs(ptr noundef %0, i32 noundef 2)
  %20 = tail call i32 @tvb_get_ntohl(ptr noundef %0, i32 noundef 4)
  %21 = tail call i32 @tvb_reported_length(ptr noundef %0)
  %22 = zext i16 %19 to i32
  %23 = add nuw nsw i32 %22, 16
  %.not = icmp eq i32 %21, %23
  br i1 %.not, label %24, label %78

24:                                               ; preds = %17
  %25 = getelementptr inbounds nuw i8, ptr %1, i64 8
  %26 = load ptr, ptr %25, align 8
  tail call void @col_set_str(ptr noundef %26, i32 noundef 35, ptr noundef nonnull @.str.253)
  %27 = load ptr, ptr %25, align 8
  tail call void @col_clear(ptr noundef %27, i32 noundef 25)
  %28 = load ptr, ptr %25, align 8
  %29 = zext i8 %18 to i32
  %30 = tail call ptr @val_to_str(i32 noundef %29, ptr noundef nonnull @messages, ptr noundef nonnull @.str.286)
  tail call void (ptr, i32, ptr, ...) @col_add_fstr(ptr noundef %28, i32 noundef 25, ptr noundef nonnull @.str.285, ptr noundef %30)
  %31 = add i8 %18, -16
  %or.cond5 = icmp ult i8 %31, -2
  br i1 %or.cond5, label %32, label %34

32:                                               ; preds = %24
  %33 = load ptr, ptr %25, align 8
  tail call void (ptr, i32, ptr, ...) @col_append_fstr(ptr noundef %33, i32 noundef 25, ptr noundef nonnull @.str.287, i32 noundef %20)
  br label %34

34:                                               ; preds = %32, %24
  %35 = load i32, ptr @proto_uftp, align 4
  %36 = tail call ptr @proto_tree_add_item(ptr noundef %2, i32 noundef %35, ptr noundef %0, i32 noundef 0, i32 noundef -1, i32 noundef 0)
  %37 = load i32, ptr @ett_uftp, align 4
  %38 = tail call ptr @proto_item_add_subtree(ptr noundef %36, i32 noundef %37)
  %39 = load i32, ptr @hf_uftp_version, align 4
  %40 = tail call ptr @proto_tree_add_item(ptr noundef %38, i32 noundef %39, ptr noundef %0, i32 noundef 0, i32 noundef 1, i32 noundef 0)
  %41 = load i32, ptr @hf_uftp_func, align 4
  %42 = tail call ptr @proto_tree_add_item(ptr noundef %38, i32 noundef %41, ptr noundef %0, i32 noundef 1, i32 noundef 1, i32 noundef 0)
  %43 = load i32, ptr @hf_uftp_blsize, align 4
  %44 = tail call ptr @proto_tree_add_item(ptr noundef %38, i32 noundef %43, ptr noundef %0, i32 noundef 2, i32 noundef 2, i32 noundef 0)
  %45 = load i32, ptr @hf_uftp_group_id, align 4
  %46 = tail call ptr @proto_tree_add_item(ptr noundef %38, i32 noundef %45, ptr noundef %0, i32 noundef 4, i32 noundef 4, i32 noundef 0)
  %47 = load i32, ptr @hf_uftp_srcaddr, align 4
  %48 = tail call ptr @proto_tree_add_item(ptr noundef %38, i32 noundef %47, ptr noundef %0, i32 noundef 8, i32 noundef 4, i32 noundef 0)
  %49 = load i32, ptr @hf_uftp_destaddr, align 4
  %50 = tail call ptr @proto_tree_add_item(ptr noundef %38, i32 noundef %49, ptr noundef %0, i32 noundef 12, i32 noundef 4, i32 noundef 0)
  %51 = tail call ptr @tvb_new_subset_length(ptr noundef %0, i32 noundef 16, i32 noundef %22)
  switch i8 %18, label %74 [
    i8 1, label %52
    i8 2, label %53
    i8 3, label %54
    i8 4, label %55
    i8 5, label %56
    i8 6, label %60
    i8 7, label %61
    i8 8, label %62
    i8 9, label %63
    i8 10, label %64
    i8 11, label %65
    i8 12, label %66
    i8 13, label %67
    i8 14, label %68
    i8 15, label %69
    i8 16, label %70
    i8 17, label %71
    i8 80, label %72
    i8 99, label %73
  ]

52:                                               ; preds = %34
  tail call fastcc void @dissect_uftp_announce(ptr noundef %51, ptr noundef %1, ptr noundef %38)
  br label %76

53:                                               ; preds = %34
  tail call fastcc void @dissect_uftp_register(ptr noundef %51, ptr noundef %1, ptr noundef %38)
  br label %76

54:                                               ; preds = %34
  tail call fastcc void @dissect_uftp_clientkey(ptr noundef %51, ptr noundef %1, ptr noundef %38)
  br label %76

55:                                               ; preds = %34
  tail call fastcc void @dissect_uftp_regconf(ptr noundef %51, ptr noundef %1, ptr noundef %38)
  br label %76

56:                                               ; preds = %34
  %57 = icmp eq i8 %5, 48
  br i1 %57, label %58, label %59

58:                                               ; preds = %56
  tail call fastcc void @dissect_uftp_fileinfo_30(ptr noundef %51, ptr noundef %1, ptr noundef %38)
  br label %76

59:                                               ; preds = %56
  tail call fastcc void @dissect_uftp_fileinfo(ptr noundef %51, ptr noundef %1, ptr noundef %38)
  br label %76

60:                                               ; preds = %34
  tail call fastcc void @dissect_uftp_keyinfo(ptr noundef %51, ptr noundef %1, ptr noundef %38)
  br label %76

61:                                               ; preds = %34
  tail call fastcc void @dissect_uftp_infoack(ptr noundef %51, ptr noundef %1, ptr noundef %38)
  br label %76

62:                                               ; preds = %34
  tail call fastcc void @dissect_uftp_fileseg(ptr noundef %51, ptr noundef %1, ptr noundef %38)
  br label %76

63:                                               ; preds = %34
  tail call fastcc void @dissect_uftp_done(ptr noundef %51, ptr noundef %1, ptr noundef %38)
  br label %76

64:                                               ; preds = %34
  tail call fastcc void @dissect_uftp_status(ptr noundef %51, ptr noundef %1, ptr noundef %38)
  br label %76

65:                                               ; preds = %34
  tail call fastcc void @dissect_uftp_prstatus(ptr noundef %51, ptr noundef %1, ptr noundef %38)
  br label %76

66:                                               ; preds = %34
  tail call fastcc void @dissect_uftp_complete(ptr noundef %51, ptr noundef %1, ptr noundef %38)
  br label %76

67:                                               ; preds = %34
  tail call fastcc void @dissect_uftp_doneconf(ptr noundef %51, ptr noundef %1, ptr noundef %38)
  br label %76

68:                                               ; preds = %34
  tail call fastcc void @dissect_uftp_hbreq(ptr noundef %51, ptr noundef %1, ptr noundef %38)
  br label %76

69:                                               ; preds = %34
  tail call fastcc void @dissect_uftp_hbresp(ptr noundef %51, ptr noundef %1, ptr noundef %38)
  br label %76

70:                                               ; preds = %34
  tail call fastcc void @dissect_uftp_keyreq(ptr noundef %51, ptr noundef %1, ptr noundef %38)
  br label %76

71:                                               ; preds = %34
  tail call fastcc void @dissect_uftp_proxykey(ptr noundef %51, ptr noundef %1, ptr noundef %38)
  br label %76

72:                                               ; preds = %34
  tail call fastcc void @dissect_uftp_encrypted(ptr noundef %51, ptr noundef %1, ptr noundef %38)
  br label %76

73:                                               ; preds = %34
  tail call fastcc void @dissect_uftp_abort(ptr noundef %51, ptr noundef %1, ptr noundef %38)
  br label %76

74:                                               ; preds = %34
  %75 = tail call ptr (ptr, ptr, ptr, ptr, i32, i32, ptr, ...) @proto_tree_add_expert_format(ptr noundef %2, ptr noundef %1, ptr noundef nonnull @ei_uftp_func_unknown, ptr noundef %0, i32 noundef 16, i32 noundef -1, ptr noundef nonnull @.str.288, i32 noundef %29)
  br label %76

76:                                               ; preds = %58, %59, %74, %73, %72, %71, %70, %69, %68, %67, %66, %65, %64, %63, %62, %61, %60, %55, %54, %53, %52
  %77 = tail call i32 @tvb_reported_length(ptr noundef %0)
  br label %78

78:                                               ; preds = %17, %14, %12, %76, %9, %6
  %.0 = phi i32 [ %8, %6 ], [ %11, %9 ], [ %77, %76 ], [ 0, %12 ], [ 0, %14 ], [ 0, %17 ]
  ret i32 %.0
}